; Function Attrs: mustprogress nofree norecurse nosync nounwind willreturn memory(read, inaccessiblemem: none) uwtable
define dso_local noundef range(i32 -128, 128) i32 @_ZNK4llvm7TGLexer12peekNextCharEi(ptr nocapture noundef nonnull readonly align 8 dereferenceable(192) %0, i32 noundef %1) local_unnamed_addr #7 align 2 {
  %3 = getelementptr inbounds nuw i8, ptr %0, i64 8
  %4 = load ptr, ptr %3, align 8
  %5 = sext i32 %1 to i64
  %6 = getelementptr inbounds i8, ptr %4, i64 %5
  %7 = load i8, ptr %6, align 1
  %8 = sext i8 %7 to i32
  ret i32 %8
}